target datalayout = "e-m:e-p270:32:32-p271:32:32-p272:64:64-i64:64-i128:128-f80:128-n8:16:32:64-S128"
target triple = "x86_64-pc-linux-gnu"

%"class.std::unique_lock" = type <{ ptr, i8, [7 x i8] }>
%"class.std::mutex" = type { %"class.std::__mutex_base" }
%"class.std::__mutex_base" = type { %union.pthread_mutex_t }
%union.pthread_mutex_t = type { %struct.__pthread_mutex_s }
%struct.__pthread_mutex_s = type { i32, i32, i32, i32, i32, i16, i16, %struct.__pthread_internal_list }
%struct.__pthread_internal_list = type { ptr, ptr }
%"class.std::condition_variable" = type { %"class.std::__condvar" }
%"class.std::__condvar" = type { %union.pthread_cond_t }
%union.pthread_cond_t = type { %struct.__pthread_cond_s }
%struct.__pthread_cond_s = type { %union.__atomic_wide_counter, %union.__atomic_wide_counter, [2 x i32], [2 x i32], i32, i32, [2 x i32] }
%union.__atomic_wide_counter = type { i64 }
%"class.pbrt::ThreadPool" = type { %"class.std::vector", %"class.std::mutex", i8, i8, ptr, %"class.std::condition_variable" }
%"class.std::vector" = type { %"struct.std::_Vector_base" }
%"struct.std::_Vector_base" = type { %"struct.std::_Vector_base<std::thread, std::allocator<std::thread>>::_Vector_impl" }
%"struct.std::_Vector_base<std::thread, std::allocator<std::thread>>::_Vector_impl" = type { %"struct.std::_Vector_base<std::thread, std::allocator<std::thread>>::_Vector_impl_data" }
%"struct.std::_Vector_base<std::thread, std::allocator<std::thread>>::_Vector_impl_data" = type { ptr, ptr, ptr }
%"class.pbrt::ParallelJob" = type <{ ptr, i32, [4 x i8], ptr, ptr, i8, [7 x i8] }>

; Function Attrs: inlinehint mustprogress nounwind uwtable
define internal noundef i32 @_ZL18__gthread_active_pv() #10 {
  ret i32 1
}

; Function Attrs: inlinehint mustprogress nounwind uwtable
define internal noundef i32 @_ZL20__gthread_mutex_lockP15pthread_mutex_t(ptr noundef %0) #10 {
  %2 = alloca i32, align 4
  %3 = alloca ptr, align 8
  store ptr %0, ptr %3, align 8, !tbaa !70
  %4 = call noundef i32 @_ZL18__gthread_active_pv()
  %5 = icmp ne i32 %4, 0
  br i1 %5, label %6, label %9

6:                                                ; preds = %1
  %7 = load ptr, ptr %3, align 8, !tbaa !70
  %8 = call i32 @pthread_mutex_lock(ptr noundef %7) #18
  store i32 %8, ptr %2, align 4
  br label %10

9:                                                ; preds = %1
  store i32 0, ptr %2, align 4
  br label %10

10:                                               ; preds = %9, %6
  %11 = load i32, ptr %2, align 4
  ret i32 %11
}

; Function Attrs: mustprogress uwtable
define linkonce_odr dso_local void @_ZNSt5mutex4lockEv(ptr noundef nonnull align 8 dereferenceable(40) %0) #0 comdat align 2 {
  %2 = alloca ptr, align 8
  %3 = alloca i32, align 4
  store ptr %0, ptr %2, align 8, !tbaa !36
  %4 = load ptr, ptr %2, align 8
  call void @llvm.lifetime.start.p0(i64 4, ptr %3) #18
  %5 = getelementptr inbounds nuw %"class.std::__mutex_base", ptr %4, i32 0, i32 0
  %6 = call noundef i32 @_ZL20__gthread_mutex_lockP15pthread_mutex_t(ptr noundef %5)
  store i32 %6, ptr %3, align 4, !tbaa !30
  %7 = load i32, ptr %3, align 4, !tbaa !30
  %8 = icmp ne i32 %7, 0
  br i1 %8, label %9, label %11

9:                                                ; preds = %1
  %10 = load i32, ptr %3, align 4, !tbaa !30
  call void @_ZSt20__throw_system_errori(i32 noundef %10) #19
  unreachable

11:                                               ; preds = %1
  call void @llvm.lifetime.end.p0(i64 4, ptr %3) #18
  ret void
}

; Function Attrs: mustprogress uwtable
define linkonce_odr dso_local noundef zeroext i1 @_ZNK4pbrt11ParallelJob8FinishedEv(ptr noundef nonnull align 8 dereferenceable(33) %0) #0 comdat align 2 {
  %2 = alloca ptr, align 8
  store ptr %0, ptr %2, align 8, !tbaa !79
  %3 = load ptr, ptr %2, align 8
  %4 = load ptr, ptr %3, align 8, !tbaa !80
  %5 = getelementptr inbounds ptr, ptr %4, i64 2
  %6 = load ptr, ptr %5, align 8
  %7 = call noundef zeroext i1 %6(ptr noundef nonnull align 8 dereferenceable(33) %3)
  br i1 %7, label %12, label %8

8:                                                ; preds = %1
  %9 = getelementptr inbounds nuw %"class.pbrt::ParallelJob", ptr %3, i32 0, i32 1
  %10 = load i32, ptr %9, align 8, !tbaa !85
  %11 = icmp eq i32 %10, 0
  br label %12

12:                                               ; preds = %8, %1
  %13 = phi i1 [ false, %1 ], [ %11, %8 ]
  ret i1 %13
}

; Function Attrs: mustprogress uwtable
define linkonce_odr dso_local void @_ZNSt11unique_lockISt5mutexE4lockEv(ptr noundef nonnull align 8 dereferenceable(9) %0) #0 comdat align 2 {
  %2 = alloca ptr, align 8
  store ptr %0, ptr %2, align 8, !tbaa !34
  %3 = load ptr, ptr %2, align 8
  %4 = getelementptr inbounds nuw %"class.std::unique_lock", ptr %3, i32 0, i32 0
  %5 = load ptr, ptr %4, align 8, !tbaa !38
  %6 = icmp ne ptr %5, null
  br i1 %6, label %8, label %7

7:                                                ; preds = %1
  call void @_ZSt20__throw_system_errori(i32 noundef 1) #19
  unreachable

8:                                                ; preds = %1
  %9 = getelementptr inbounds nuw %"class.std::unique_lock", ptr %3, i32 0, i32 1
  %10 = load i8, ptr %9, align 8, !tbaa !41, !range !50, !noundef !51
  %11 = trunc i8 %10 to i1
  br i1 %11, label %12, label %13

12:                                               ; preds = %8
  call void @_ZSt20__throw_system_errori(i32 noundef 35) #19
  unreachable

13:                                               ; preds = %8
  %14 = getelementptr inbounds nuw %"class.std::unique_lock", ptr %3, i32 0, i32 0
  %15 = load ptr, ptr %14, align 8, !tbaa !38
  call void @_ZNSt5mutex4lockEv(ptr noundef nonnull align 8 dereferenceable(40) %15)
  %16 = getelementptr inbounds nuw %"class.std::unique_lock", ptr %3, i32 0, i32 1
  store i8 1, ptr %16, align 8, !tbaa !41
  br label %17

17:                                               ; preds = %13
  br label %18

18:                                               ; preds = %17
  ret void
}

; Function Attrs: mustprogress uwtable
define dso_local void @_ZN4pbrt10ThreadPool10WorkOrWaitEPSt11unique_lockISt5mutexEb(ptr noundef nonnull align 8 dereferenceable(128) %0, ptr noundef %1, i1 noundef zeroext %2) #0 align 2 {
  %4 = alloca ptr, align 8
  %5 = alloca ptr, align 8
  %6 = alloca i8, align 1
  %7 = alloca ptr, align 8
  store ptr %0, ptr %4, align 8, !tbaa !52
  store ptr %1, ptr %5, align 8, !tbaa !34
  %8 = zext i1 %2 to i8
  store i8 %8, ptr %6, align 1, !tbaa !78
  %9 = load ptr, ptr %4, align 8
  br label %10

10:                                               ; preds = %3
  br label %11

11:                                               ; preds = %10
  %12 = load i8, ptr %6, align 1, !tbaa !78, !range !50, !noundef !51
  %13 = trunc i8 %12 to i1
  br i1 %13, label %21, label %14

14:                                               ; preds = %11
  %15 = getelementptr inbounds nuw %"class.pbrt::ThreadPool", ptr %9, i32 0, i32 3
  %16 = load i8, ptr %15, align 1, !tbaa !62, !range !50, !noundef !51
  %17 = trunc i8 %16 to i1
  br i1 %17, label %18, label %21

18:                                               ; preds = %14
  %19 = getelementptr inbounds nuw %"class.pbrt::ThreadPool", ptr %9, i32 0, i32 5
  %20 = load ptr, ptr %5, align 8, !tbaa !34
  call void @_ZNSt18condition_variable4waitERSt11unique_lockISt5mutexE(ptr noundef nonnull align 8 dereferenceable(48) %19, ptr noundef nonnull align 8 dereferenceable(9) %20)
  br label %70

21:                                               ; preds = %14, %11
  call void @llvm.lifetime.start.p0(i64 8, ptr %7) #18
  %22 = getelementptr inbounds nuw %"class.pbrt::ThreadPool", ptr %9, i32 0, i32 4
  %23 = load ptr, ptr %22, align 8, !tbaa !63
  store ptr %23, ptr %7, align 8, !tbaa !79
  br label %24

24:                                               ; preds = %36, %21
  %25 = load ptr, ptr %7, align 8, !tbaa !79
  %26 = icmp ne ptr %25, null
  br i1 %26, label %27, label %34

27:                                               ; preds = %24
  %28 = load ptr, ptr %7, align 8, !tbaa !79
  %29 = load ptr, ptr %28, align 8, !tbaa !80
  %30 = getelementptr inbounds ptr, ptr %29, i64 2
  %31 = load ptr, ptr %30, align 8
  %32 = call noundef zeroext i1 %31(ptr noundef nonnull align 8 dereferenceable(33) %28)
  %33 = xor i1 %32, true
  br label %34

34:                                               ; preds = %27, %24
  %35 = phi i1 [ false, %24 ], [ %33, %27 ]
  br i1 %35, label %36, label %40

36:                                               ; preds = %34
  %37 = load ptr, ptr %7, align 8, !tbaa !79
  %38 = getelementptr inbounds nuw %"class.pbrt::ParallelJob", ptr %37, i32 0, i32 4
  %39 = load ptr, ptr %38, align 8, !tbaa !82
  store ptr %39, ptr %7, align 8, !tbaa !79
  br label %24, !llvm.loop !84

40:                                               ; preds = %34
  %41 = load ptr, ptr %7, align 8, !tbaa !79
  %42 = icmp ne ptr %41, null
  br i1 %42, label %43, label %66

43:                                               ; preds = %40
  %44 = load ptr, ptr %7, align 8, !tbaa !79
  %45 = getelementptr inbounds nuw %"class.pbrt::ParallelJob", ptr %44, i32 0, i32 1
  %46 = load i32, ptr %45, align 8, !tbaa !85
  %47 = add nsw i32 %46, 1
  store i32 %47, ptr %45, align 8, !tbaa !85
  %48 = load ptr, ptr %7, align 8, !tbaa !79
  %49 = load ptr, ptr %5, align 8, !tbaa !34
  %50 = load ptr, ptr %48, align 8, !tbaa !80
  %51 = getelementptr inbounds ptr, ptr %50, i64 3
  %52 = load ptr, ptr %51, align 8
  call void %52(ptr noundef nonnull align 8 dereferenceable(33) %48, ptr noundef %49)
  br label %53

53:                                               ; preds = %43
  br label %54

54:                                               ; preds = %53
  br label %55

55:                                               ; preds = %54
  %56 = load ptr, ptr %5, align 8, !tbaa !34
  call void @_ZNSt11unique_lockISt5mutexE4lockEv(ptr noundef nonnull align 8 dereferenceable(9) %56)
  %57 = load ptr, ptr %7, align 8, !tbaa !79
  %58 = getelementptr inbounds nuw %"class.pbrt::ParallelJob", ptr %57, i32 0, i32 1
  %59 = load i32, ptr %58, align 8, !tbaa !85
  %60 = add nsw i32 %59, -1
  store i32 %60, ptr %58, align 8, !tbaa !85
  %61 = load ptr, ptr %7, align 8, !tbaa !79
  %62 = call noundef zeroext i1 @_ZNK4pbrt11ParallelJob8FinishedEv(ptr noundef nonnull align 8 dereferenceable(33) %61)
  br i1 %62, label %63, label %65

63:                                               ; preds = %55
  %64 = getelementptr inbounds nuw %"class.pbrt::ThreadPool", ptr %9, i32 0, i32 5
  call void @_ZNSt18condition_variable10notify_allEv(ptr noundef nonnull align 8 dereferenceable(48) %64) #18
  br label %65

65:                                               ; preds = %63, %55
  br label %69

66:                                               ; preds = %40
  %67 = getelementptr inbounds nuw %"class.pbrt::ThreadPool", ptr %9, i32 0, i32 5
  %68 = load ptr, ptr %5, align 8, !tbaa !34
  call void @_ZNSt18condition_variable4waitERSt11unique_lockISt5mutexE(ptr noundef nonnull align 8 dereferenceable(48) %67, ptr noundef nonnull align 8 dereferenceable(9) %68)
  br label %69

69:                                               ; preds = %66, %65
  call void @llvm.lifetime.end.p0(i64 8, ptr %7) #18
  br label %70

70:                                               ; preds = %69, %18
  ret void
}