; Function Attrs: mustprogress uwtable
define dso_local void @_ZN4pbrt10ThreadPool10WorkOrWaitEPSt11unique_lockISt5mutexEb(ptr noundef nonnull align 8 dereferenceable(128) %0, ptr noundef %1, i1 noundef zeroext %2) local_unnamed_addr #0 align 2 {
  br i1 %2, label %10, label %4

4:                                                ; preds = %3
  %5 = getelementptr inbounds nuw i8, ptr %0, i64 65
  %6 = load i8, ptr %5, align 1, !tbaa !81, !range !41, !noundef !78
  %7 = trunc nuw i8 %6 to i1
  br i1 %7, label %8, label %10

8:                                                ; preds = %4
  %9 = getelementptr inbounds nuw i8, ptr %0, i64 80
  tail call void @_ZNSt18condition_variable4waitERSt11unique_lockISt5mutexE(ptr noundef nonnull align 8 dereferenceable(48) %9, ptr noundef nonnull align 8 dereferenceable(9) %1)
  br label %45

10:                                               ; preds = %4, %3
  %11 = getelementptr inbounds nuw i8, ptr %0, i64 72
  %.017 = load ptr, ptr %11, align 8, !tbaa !82
  %.not18 = icmp eq ptr %.017, null
  br i1 %.not18, label %.critedge13, label %.lr.ph

.lr.ph:                                           ; preds = %10, %16
  %.019 = phi ptr [ %.0, %16 ], [ %.017, %10 ]
  %12 = load ptr, ptr %.019, align 8, !tbaa !55
  %13 = getelementptr inbounds nuw i8, ptr %12, i64 16
  %14 = load ptr, ptr %13, align 8
  %15 = tail call noundef zeroext i1 %14(ptr noundef nonnull align 8 dereferenceable(33) %.019)
  br i1 %15, label %.critedge, label %16

16:                                               ; preds = %.lr.ph
  %17 = getelementptr inbounds nuw i8, ptr %.019, i64 24
  %.0 = load ptr, ptr %17, align 8, !tbaa !82
  %.not = icmp eq ptr %.0, null
  br i1 %.not, label %.critedge13, label %.lr.ph, !llvm.loop !83

.critedge:                                        ; preds = %.lr.ph
  %18 = getelementptr inbounds nuw i8, ptr %.019, i64 8
  %19 = load i32, ptr %18, align 8, !tbaa !84
  %20 = add nsw i32 %19, 1
  store i32 %20, ptr %18, align 8, !tbaa !84
  %21 = load ptr, ptr %.019, align 8, !tbaa !55
  %22 = getelementptr inbounds nuw i8, ptr %21, i64 24
  %23 = load ptr, ptr %22, align 8
  tail call void %23(ptr noundef nonnull align 8 dereferenceable(33) %.019, ptr noundef %1)
  %24 = load ptr, ptr %1, align 8, !tbaa !25
  %.not.i = icmp eq ptr %24, null
  br i1 %.not.i, label %25, label %26

25:                                               ; preds = %.critedge
  tail call void @_ZSt20__throw_system_errori(i32 noundef 1) #27
  unreachable

26:                                               ; preds = %.critedge
  %27 = getelementptr inbounds nuw i8, ptr %1, i64 8
  %28 = load i8, ptr %27, align 8, !tbaa !29, !range !41, !noundef !78
  %29 = trunc nuw i8 %28 to i1
  br i1 %29, label %30, label %31

30:                                               ; preds = %26
  tail call void @_ZSt20__throw_system_errori(i32 noundef 35) #27
  unreachable

31:                                               ; preds = %26
  %32 = tail call noundef i32 @pthread_mutex_lock(ptr noundef nonnull align 8 dereferenceable(40) %24) #25
  %.not.i.i = icmp eq i32 %32, 0
  br i1 %.not.i.i, label %_ZNSt11unique_lockISt5mutexE4lockEv.exit, label %33

33:                                               ; preds = %31
  tail call void @_ZSt20__throw_system_errori(i32 noundef %32) #27
  unreachable

_ZNSt11unique_lockISt5mutexE4lockEv.exit:         ; preds = %31
  store i8 1, ptr %27, align 8, !tbaa !29
  %34 = load i32, ptr %18, align 8, !tbaa !84
  %35 = add nsw i32 %34, -1
  store i32 %35, ptr %18, align 8, !tbaa !84
  %36 = load ptr, ptr %.019, align 8, !tbaa !55
  %37 = getelementptr inbounds nuw i8, ptr %36, i64 16
  %38 = load ptr, ptr %37, align 8
  %39 = tail call noundef zeroext i1 %38(ptr noundef nonnull align 8 dereferenceable(33) %.019)
  %40 = load i32, ptr %18, align 8
  %41 = icmp ne i32 %40, 0
  %.not15 = select i1 %39, i1 true, i1 %41
  br i1 %.not15, label %45, label %42

42:                                               ; preds = %_ZNSt11unique_lockISt5mutexE4lockEv.exit
  %43 = getelementptr inbounds nuw i8, ptr %0, i64 80
  tail call void @_ZNSt18condition_variable10notify_allEv(ptr noundef nonnull align 8 dereferenceable(48) %43) #25
  br label %45

.critedge13:                                      ; preds = %16, %10
  %44 = getelementptr inbounds nuw i8, ptr %0, i64 80
  tail call void @_ZNSt18condition_variable4waitERSt11unique_lockISt5mutexE(ptr noundef nonnull align 8 dereferenceable(48) %44, ptr noundef nonnull align 8 dereferenceable(9) %1)
  br label %45

45:                                               ; preds = %.critedge13, %42, %_ZNSt11unique_lockISt5mutexE4lockEv.exit, %8
  ret void
}